; Function Attrs: nounwind uwtable
define internal range(i32 0, 28) i32 @mqtt_setup_conn(ptr noundef writeonly captures(none) %0, ptr readnone captures(none) %1) #0 {
  %3 = load ptr, ptr @Curl_ccalloc, align 8, !tbaa !3
  %4 = tail call ptr %3(i64 noundef 1, i64 noundef 80) #8
  %.not = icmp eq ptr %4, null
  br i1 %.not, label %8, label %5

5:                                                ; preds = %2
  %6 = getelementptr inbounds nuw i8, ptr %4, i64 40
  tail call void @Curl_dyn_init(ptr noundef nonnull %6, i64 noundef 65536) #8
  %7 = getelementptr inbounds nuw i8, ptr %0, i64 440
  store ptr %4, ptr %7, align 8, !tbaa !7
  br label %8

8:                                                ; preds = %2, %5
  %.0 = phi i32 [ 0, %5 ], [ 27, %2 ]
  ret i32 %.0
}